target datalayout = "e-m:e-p270:32:32-p271:32:32-p272:64:64-i64:64-i128:128-f80:128-n8:16:32:64-S128"
target triple = "x86_64-pc-linux-gnu"

%"class.rocksdb::CacheKey" = type { i64, i64 }

; Function Attrs: mustprogress nounwind uwtable
define linkonce_odr void @_ZN7rocksdb8CacheKeyC2Emm(ptr noundef nonnull align 8 dereferenceable(16) %0, i64 noundef %1, i64 noundef %2) unnamed_addr #2 comdat align 2 {
  %4 = alloca ptr, align 8
  %5 = alloca i64, align 8
  %6 = alloca i64, align 8
  store ptr %0, ptr %4, align 8, !tbaa !13
  store i64 %1, ptr %5, align 8, !tbaa !11
  store i64 %2, ptr %6, align 8, !tbaa !11
  %7 = load ptr, ptr %4, align 8
  %8 = getelementptr inbounds nuw %"class.rocksdb::CacheKey", ptr %7, i32 0, i32 0
  %9 = load i64, ptr %5, align 8, !tbaa !11
  store i64 %9, ptr %8, align 8, !tbaa !15
  %10 = getelementptr inbounds nuw %"class.rocksdb::CacheKey", ptr %7, i32 0, i32 1
  %11 = load i64, ptr %6, align 8, !tbaa !11
  store i64 %11, ptr %10, align 8, !tbaa !17
  ret void
}

; Function Attrs: mustprogress uwtable
define { i64, i64 } @_ZN7rocksdb8CacheKey28CreateUniqueForCacheLifetimeEPNS_5CacheE(ptr noundef %0) #0 align 2 {
  %2 = alloca %"class.rocksdb::CacheKey", align 8
  %3 = alloca ptr, align 8
  %4 = alloca i64, align 8
  store ptr %0, ptr %3, align 8, !tbaa !4
  call void @llvm.lifetime.start.p0(i64 8, ptr %4) #12
  %5 = load ptr, ptr %3, align 8, !tbaa !4
  %6 = load ptr, ptr %5, align 8, !tbaa !9
  %7 = getelementptr inbounds ptr, ptr %6, i64 26
  %8 = load ptr, ptr %7, align 8
  %9 = call noundef i64 %8(ptr noundef nonnull align 8 dereferenceable(80) %5)
  %10 = add i64 %9, 1
  store i64 %10, ptr %4, align 8, !tbaa !11
  %11 = load i64, ptr %4, align 8, !tbaa !11
  call void @_ZN7rocksdb8CacheKeyC2Emm(ptr noundef nonnull align 8 dereferenceable(16) %2, i64 noundef 0, i64 noundef %11)
  call void @llvm.lifetime.end.p0(i64 8, ptr %4) #12
  %12 = load { i64, i64 }, ptr %2, align 8
  ret { i64, i64 } %12
}