; Function Attrs: mustprogress uwtable
define { i64, i64 } @_ZN7rocksdb8CacheKey28CreateUniqueForCacheLifetimeEPNS_5CacheE(ptr noundef %0) local_unnamed_addr #0 align 2 {
  %2 = load ptr, ptr %0, align 8, !tbaa !4
  %3 = getelementptr inbounds nuw i8, ptr %2, i64 208
  %4 = load ptr, ptr %3, align 8
  %5 = tail call noundef i64 %4(ptr noundef nonnull align 8 dereferenceable(80) %0)
  %6 = add i64 %5, 1
  %.fca.1.insert = insertvalue { i64, i64 } { i64 0, i64 poison }, i64 %6, 1
  ret { i64, i64 } %.fca.1.insert
}